target datalayout = "e-m:e-p270:32:32-p271:32:32-p272:64:64-i64:64-i128:128-f80:128-n8:16:32:64-S128"
target triple = "x86_64-pc-linux-gnu"

%struct.QMetaObject = type { %struct.anon }
%struct.anon = type { %"struct.QMetaObject::SuperData", ptr, ptr, ptr, ptr, ptr }
%"struct.QMetaObject::SuperData" = type { ptr }
%class.MLRenderingToolbar = type { %class.QToolBar, %class.QList, i32, ptr, %class.QMap, %class.QMap.1, ptr }
%class.QToolBar = type { %class.QWidget }
%class.QWidget = type { %class.QObject, %class.QPaintDevice, ptr }
%class.QObject = type { ptr, %class.QScopedPointer }
%class.QScopedPointer = type { ptr }
%class.QPaintDevice = type { ptr, i16, ptr }
%class.QList = type { %union.anon }
%union.anon = type { %struct.QListData }
%struct.QListData = type { ptr }
%class.QMap = type { ptr }
%class.QMap.1 = type { ptr }

@_ZN17MLRenderingAction16staticMetaObjectE = external global %struct.QMetaObject, align 8

; Function Attrs: mustprogress uwtable
define linkonce_odr noundef ptr @_Z12qobject_castIP17MLRenderingActionET_P7QObject(ptr noundef %0) #5 comdat {
  %2 = alloca ptr, align 8
  store ptr %0, ptr %2, align 8
  %3 = load ptr, ptr %2, align 8
  %4 = call noundef ptr @_ZNK11QMetaObject4castEP7QObject(ptr noundef nonnull align 8 dereferenceable(48) @_ZN17MLRenderingAction16staticMetaObjectE, ptr noundef %3)
  ret ptr %4
}

; Function Attrs: mustprogress uwtable
define void @_ZN18MLRenderingToolbar6toggleEP7QAction(ptr noundef nonnull align 8 dereferenceable(96) %0, ptr noundef %1) unnamed_addr #5 align 2 {
  %3 = alloca ptr, align 8
  %4 = alloca ptr, align 8
  %5 = alloca ptr, align 8
  store ptr %0, ptr %3, align 8
  store ptr %1, ptr %4, align 8
  %6 = load ptr, ptr %3, align 8
  %7 = load ptr, ptr %4, align 8
  %8 = call noundef ptr @_Z12qobject_castIP17MLRenderingActionET_P7QObject(ptr noundef %7)
  store ptr %8, ptr %5, align 8
  %9 = load ptr, ptr %5, align 8
  %10 = icmp ne ptr %9, null
  br i1 %10, label %11, label %27

11:                                               ; preds = %2
  %12 = getelementptr inbounds %class.MLRenderingToolbar, ptr %6, i32 0, i32 2
  %13 = load i32, ptr %12, align 8
  %14 = getelementptr inbounds %class.MLRenderingToolbar, ptr %6, i32 0, i32 1
  call void @_ZN18MLRenderingToolbar37updateRenderingDataAccordingToActionsEiRK5QListIP17MLRenderingActionE(ptr noundef nonnull align 8 dereferenceable(96) %6, i32 noundef %13, ptr noundef nonnull align 8 dereferenceable(8) %14)
  %15 = getelementptr inbounds %class.MLRenderingToolbar, ptr %6, i32 0, i32 2
  %16 = load i32, ptr %15, align 8
  %17 = load ptr, ptr %5, align 8
  %18 = getelementptr inbounds %class.MLRenderingToolbar, ptr %6, i32 0, i32 1
  call void @_ZN18MLRenderingToolbar37updateRenderingDataAccordingToActionsEiP17MLRenderingActionR5QListIS1_E(ptr noundef nonnull align 8 dereferenceable(96) %6, i32 noundef %16, ptr noundef %17, ptr noundef nonnull align 8 dereferenceable(8) %18)
  %19 = getelementptr inbounds %class.MLRenderingToolbar, ptr %6, i32 0, i32 2
  %20 = load i32, ptr %19, align 8
  %21 = load ptr, ptr %5, align 8
  call void @_ZN18MLRenderingToolbar36updateRenderingDataAccordingToActionEiP17MLRenderingAction(ptr noundef nonnull align 8 dereferenceable(96) %6, i32 noundef %20, ptr noundef %21)
  %22 = load ptr, ptr %5, align 8
  %23 = call noundef zeroext i1 @_ZNK7QAction9isCheckedEv(ptr noundef nonnull align 8 dereferenceable(16) %22)
  br i1 %23, label %24, label %26

24:                                               ; preds = %11
  %25 = load ptr, ptr %5, align 8
  call void @_ZN18MLRenderingToolbar15activatedActionEP17MLRenderingAction(ptr noundef nonnull align 8 dereferenceable(96) %6, ptr noundef %25)
  br label %26

26:                                               ; preds = %24, %11
  br label %27

27:                                               ; preds = %26, %2
  ret void
}