; Function Attrs: mustprogress uwtable
define void @_ZN18MLRenderingToolbar6toggleEP7QAction(ptr noundef nonnull align 8 dereferenceable(96) %0, ptr noundef %1) unnamed_addr #3 align 2 {
  %3 = tail call noundef ptr @_ZNK11QMetaObject4castEP7QObject(ptr noundef nonnull align 8 dereferenceable(48) @_ZN17MLRenderingAction16staticMetaObjectE, ptr noundef %1)
  %.not = icmp eq ptr %3, null
  br i1 %.not, label %12, label %4

4:                                                ; preds = %2
  %5 = getelementptr inbounds i8, ptr %0, i64 56
  %6 = load i32, ptr %5, align 8
  %7 = getelementptr inbounds i8, ptr %0, i64 48
  tail call void @_ZN18MLRenderingToolbar37updateRenderingDataAccordingToActionsEiRK5QListIP17MLRenderingActionE(ptr noundef nonnull align 8 dereferenceable(96) %0, i32 noundef %6, ptr noundef nonnull align 8 dereferenceable(8) %7)
  %8 = load i32, ptr %5, align 8
  tail call void @_ZN18MLRenderingToolbar37updateRenderingDataAccordingToActionsEiP17MLRenderingActionR5QListIS1_E(ptr noundef nonnull align 8 dereferenceable(96) %0, i32 noundef %8, ptr noundef nonnull %3, ptr noundef nonnull align 8 dereferenceable(8) %7)
  %9 = load i32, ptr %5, align 8
  tail call void @_ZN18MLRenderingToolbar36updateRenderingDataAccordingToActionEiP17MLRenderingAction(ptr noundef nonnull align 8 dereferenceable(96) %0, i32 noundef %9, ptr noundef nonnull %3)
  %10 = tail call noundef zeroext i1 @_ZNK7QAction9isCheckedEv(ptr noundef nonnull align 8 dereferenceable(16) %3)
  br i1 %10, label %11, label %12

11:                                               ; preds = %4
  tail call void @_ZN18MLRenderingToolbar15activatedActionEP17MLRenderingAction(ptr noundef nonnull align 8 dereferenceable(96) %0, ptr noundef nonnull %3)
  br label %12

12:                                               ; preds = %4, %11, %2
  ret void
}